; ModuleID = '55/400.c'
source_filename = "55/400.c"
target datalayout = "e-m:e-p270:32:32-p271:32:32-p272:64:64-i64:64-f80:128-n8:16:32:64-S128"
target triple = "x86_64-pc-linux-gnu"

@.str = private unnamed_addr constant [7 x i8] c"%d%s%d\00", align 1
@.str.1 = private unnamed_addr constant [2 x i8] c"0\00", align 1
@.str.2 = private unnamed_addr constant [3 x i8] c"%c\00", align 1
@.str.3 = private unnamed_addr constant [2 x i8] c"\0A\00", align 1

; Function Attrs: noinline nounwind uwtable
define dso_local i32 @main() #0 {
  %1 = alloca i32, align 4
  %2 = alloca i32, align 4
  %3 = alloca i32, align 4
  %4 = alloca i32, align 4
  %5 = alloca i32, align 4
  %6 = alloca i32, align 4
  %7 = alloca i32, align 4
  %8 = alloca i32, align 4
  %9 = alloca [33 x i8], align 16
  %10 = alloca [33 x i8], align 16
  store i32 0, i32* %1, align 4
  store i32 0, i32* %5, align 4
  store i32 0, i32* %7, align 4
  %11 = getelementptr inbounds [33 x i8], [33 x i8]* %9, i64 0, i64 0
  %12 = call i32 (i8*, ...) @__isoc99_scanf(i8* getelementptr inbounds ([7 x i8], [7 x i8]* @.str, i64 0, i64 0), i32* %3, i8* %11, i32* %4)
  %13 = getelementptr inbounds [33 x i8], [33 x i8]* %9, i64 0, i64 0
  %14 = call i64 @strlen(i8* %13) #3
  %15 = trunc i64 %14 to i32
  store i32 %15, i32* %6, align 4
  store i32 0, i32* %2, align 4
  br label %16

16:                                               ; preds = %78, %0
  %17 = load i32, i32* %2, align 4
  %18 = load i32, i32* %6, align 4
  %19 = icmp slt i32 %17, %18
  br i1 %19, label %20, label %81

20:                                               ; preds = %16
  %21 = load i32, i32* %2, align 4
  %22 = sext i32 %21 to i64
  %23 = getelementptr inbounds [33 x i8], [33 x i8]* %9, i64 0, i64 %22
  %24 = load i8, i8* %23, align 1
  %25 = sext i8 %24 to i32
  %26 = icmp sge i32 %25, 48
  br i1 %26, label %27, label %41

27:                                               ; preds = %20
  %28 = load i32, i32* %2, align 4
  %29 = sext i32 %28 to i64
  %30 = getelementptr inbounds [33 x i8], [33 x i8]* %9, i64 0, i64 %29
  %31 = load i8, i8* %30, align 1
  %32 = sext i8 %31 to i32
  %33 = icmp sle i32 %32, 57
  br i1 %33, label %34, label %41

34:                                               ; preds = %27
  %35 = load i32, i32* %2, align 4
  %36 = sext i32 %35 to i64
  %37 = getelementptr inbounds [33 x i8], [33 x i8]* %9, i64 0, i64 %36
  %38 = load i8, i8* %37, align 1
  %39 = sext i8 %38 to i32
  %40 = sub nsw i32 %39, 48
  store i32 %40, i32* %8, align 4
  br label %72

41:                                               ; preds = %27, %20
  %42 = load i32, i32* %2, align 4
  %43 = sext i32 %42 to i64
  %44 = getelementptr inbounds [33 x i8], [33 x i8]* %9, i64 0, i64 %43
  %45 = load i8, i8* %44, align 1
  %46 = sext i8 %45 to i32
  %47 = icmp sge i32 %46, 97
  br i1 %47, label %48, label %63

48:                                               ; preds = %41
  %49 = load i32, i32* %2, align 4
  %50 = sext i32 %49 to i64
  %51 = getelementptr inbounds [33 x i8], [33 x i8]* %9, i64 0, i64 %50
  %52 = load i8, i8* %51, align 1
  %53 = sext i8 %52 to i32
  %54 = icmp sle i32 %53, 122
  br i1 %54, label %55, label %63

55:                                               ; preds = %48
  %56 = load i32, i32* %2, align 4
  %57 = sext i32 %56 to i64
  %58 = getelementptr inbounds [33 x i8], [33 x i8]* %9, i64 0, i64 %57
  %59 = load i8, i8* %58, align 1
  %60 = sext i8 %59 to i32
  %61 = sub nsw i32 %60, 97
  %62 = add nsw i32 %61, 10
  store i32 %62, i32* %8, align 4
  br label %71

63:                                               ; preds = %48, %41
  %64 = load i32, i32* %2, align 4
  %65 = sext i32 %64 to i64
  %66 = getelementptr inbounds [33 x i8], [33 x i8]* %9, i64 0, i64 %65
  %67 = load i8, i8* %66, align 1
  %68 = sext i8 %67 to i32
  %69 = sub nsw i32 %68, 65
  %70 = add nsw i32 %69, 10
  store i32 %70, i32* %8, align 4
  br label %71

71:                                               ; preds = %63, %55
  br label %72

72:                                               ; preds = %71, %34
  %73 = load i32, i32* %5, align 4
  %74 = load i32, i32* %3, align 4
  %75 = mul nsw i32 %73, %74
  %76 = load i32, i32* %8, align 4
  %77 = add nsw i32 %75, %76
  store i32 %77, i32* %5, align 4
  br label %78

78:                                               ; preds = %72
  %79 = load i32, i32* %2, align 4
  %80 = add nsw i32 %79, 1
  store i32 %80, i32* %2, align 4
  br label %16

81:                                               ; preds = %16
  br label %82

82:                                               ; preds = %109, %81
  %83 = load i32, i32* %5, align 4
  %84 = icmp ne i32 %83, 0
  br i1 %84, label %85, label %113

85:                                               ; preds = %82
  %86 = load i32, i32* %5, align 4
  %87 = load i32, i32* %4, align 4
  %88 = srem i32 %86, %87
  store i32 %88, i32* %8, align 4
  %89 = load i32, i32* %8, align 4
  %90 = icmp slt i32 %89, 10
  br i1 %90, label %91, label %99

91:                                               ; preds = %85
  %92 = load i32, i32* %8, align 4
  %93 = add nsw i32 48, %92
  %94 = trunc i32 %93 to i8
  %95 = load i32, i32* %7, align 4
  %96 = add nsw i32 %95, 1
  store i32 %96, i32* %7, align 4
  %97 = sext i32 %95 to i64
  %98 = getelementptr inbounds [33 x i8], [33 x i8]* %10, i64 0, i64 %97
  store i8 %94, i8* %98, align 1
  br label %108

99:                                               ; preds = %85
  %100 = load i32, i32* %8, align 4
  %101 = add nsw i32 65, %100
  %102 = sub nsw i32 %101, 10
  %103 = trunc i32 %102 to i8
  %104 = load i32, i32* %7, align 4
  %105 = add nsw i32 %104, 1
  store i32 %105, i32* %7, align 4
  %106 = sext i32 %104 to i64
  %107 = getelementptr inbounds [33 x i8], [33 x i8]* %10, i64 0, i64 %106
  store i8 %103, i8* %107, align 1
  br label %108

108:                                              ; preds = %99, %91
  br label %109

109:                                              ; preds = %108
  %110 = load i32, i32* %4, align 4
  %111 = load i32, i32* %5, align 4
  %112 = sdiv i32 %111, %110
  store i32 %112, i32* %5, align 4
  br label %82

113:                                              ; preds = %82
  %114 = load i32, i32* %7, align 4
  %115 = icmp ne i32 %114, 0
  br i1 %115, label %118, label %116

116:                                              ; preds = %113
  %117 = call i32 (i8*, ...) @printf(i8* getelementptr inbounds ([2 x i8], [2 x i8]* @.str.1, i64 0, i64 0))
  br label %135

118:                                              ; preds = %113
  %119 = load i32, i32* %7, align 4
  %120 = sub nsw i32 %119, 1
  store i32 %120, i32* %2, align 4
  br label %121

121:                                              ; preds = %131, %118
  %122 = load i32, i32* %2, align 4
  %123 = icmp sge i32 %122, 0
  br i1 %123, label %124, label %134

124:                                              ; preds = %121
  %125 = load i32, i32* %2, align 4
  %126 = sext i32 %125 to i64
  %127 = getelementptr inbounds [33 x i8], [33 x i8]* %10, i64 0, i64 %126
  %128 = load i8, i8* %127, align 1
  %129 = sext i8 %128 to i32
  %130 = call i32 (i8*, ...) @printf(i8* getelementptr inbounds ([3 x i8], [3 x i8]* @.str.2, i64 0, i64 0), i32 %129)
  br label %131

131:                                              ; preds = %124
  %132 = load i32, i32* %2, align 4
  %133 = add nsw i32 %132, -1
  store i32 %133, i32* %2, align 4
  br label %121

134:                                              ; preds = %121
  br label %135

135:                                              ; preds = %134, %116
  %136 = call i32 (i8*, ...) @printf(i8* getelementptr inbounds ([2 x i8], [2 x i8]* @.str.3, i64 0, i64 0))
  %137 = load i32, i32* %1, align 4
  ret i32 %137
}

declare dso_local i32 @__isoc99_scanf(i8*, ...) #1

; Function Attrs: nounwind readonly
declare dso_local i64 @strlen(i8*) #2

declare dso_local i32 @printf(i8*, ...) #1


!llvm.module.flags = !{!0}
!llvm.ident = !{!1}

!0 = !{i32 1, !"wchar_size", i32 4}
!1 = !{!"clang version 10.0.0-4ubuntu1 "}
